target datalayout = "e-m:e-p270:32:32-p271:32:32-p272:64:64-i64:64-i128:128-f80:128-n8:16:32:64-S128"
target triple = "x86_64-unknown-linux-gnu"

%"class.google::LogMessageFatal" = type { %"class.google::LogMessage" }
%"class.google::LogMessage" = type { ptr, ptr, %"struct.google::LogMessageTime" }
%"struct.google::LogMessageTime" = type { %struct.tm, i64, i32, i64 }
%struct.tm = type { i32, i32, i32, i32, i32, i32, i32, i32, i32, i64, ptr }
%"class.google::LogMessageVoidify" = type { i8 }

@.str.1 = private unnamed_addr constant [148 x i8] c"generated/home/dtcxzyw/WorkSpace/Projects/compilers/llvm-opt-benchmark/bench/proxygen/bench_build/generated/proxygen/lib/http/HTTPCommonHeaders.cpp\00", align 1
@_ZZN8proxygen17HTTPCommonHeaders17getPointerToTableB5cxx11ENS_25HTTPCommonHeaderTableTypeEE14camelcaseTableB5cxx11 = internal global ptr null, align 8
@_ZGVZN8proxygen17HTTPCommonHeaders17getPointerToTableB5cxx11ENS_25HTTPCommonHeaderTableTypeEE14camelcaseTableB5cxx11 = internal global i64 0, align 8
@_ZZN8proxygen17HTTPCommonHeaders17getPointerToTableB5cxx11ENS_25HTTPCommonHeaderTableTypeEE14lowercaseTableB5cxx11 = internal global ptr null, align 8
@_ZGVZN8proxygen17HTTPCommonHeaders17getPointerToTableB5cxx11ENS_25HTTPCommonHeaderTableTypeEE14lowercaseTableB5cxx11 = internal global i64 0, align 8
@.str.2 = private unnamed_addr constant [21 x i8] c"Check failed: false \00", align 1

; Function Attrs: mustprogress nounwind uwtable
define linkonce_odr void @_ZN6google17LogMessageVoidifyanERSo(ptr noundef nonnull align 1 dereferenceable(1) %this, ptr noundef nonnull align 8 dereferenceable(8) %0) #1 comdat align 2 {
entry:
  %this.addr = alloca ptr, align 8
  %.addr = alloca ptr, align 8
  store ptr %this, ptr %this.addr, align 8
  store ptr %0, ptr %.addr, align 8
  ret void
}

; Function Attrs: mustprogress nounwind uwtable
define linkonce_odr void @_ZN6google17LogMessageVoidifyC2Ev(ptr noundef nonnull align 1 dereferenceable(1) %this) unnamed_addr #1 comdat align 2 {
entry:
  %this.addr = alloca ptr, align 8
  store ptr %this, ptr %this.addr, align 8
  ret void
}

; Function Attrs: mustprogress uwtable
define noundef ptr @_ZN8proxygen17HTTPCommonHeaders17getPointerToTableB5cxx11ENS_25HTTPCommonHeaderTableTypeE(i8 noundef zeroext %type) #0 align 2 personality ptr @__gxx_personality_v0 {
entry:
  %retval = alloca ptr, align 8
  %type.addr = alloca i8, align 1
  %exn.slot = alloca ptr, align 8
  %ehselector.slot = alloca i32, align 4
  %ref.tmp = alloca %"class.google::LogMessageVoidify", align 1
  %ref.tmp10 = alloca %"class.google::LogMessageFatal", align 8
  store i8 %type, ptr %type.addr, align 1
  %0 = load i8, ptr %type.addr, align 1
  switch i8 %0, label %sw.default [
    i8 0, label %sw.bb
    i8 1, label %sw.bb1
  ]

sw.bb:                                            ; preds = %entry
  %1 = load atomic i8, ptr @_ZGVZN8proxygen17HTTPCommonHeaders17getPointerToTableB5cxx11ENS_25HTTPCommonHeaderTableTypeEE14camelcaseTableB5cxx11 acquire, align 8
  %guard.uninitialized = icmp eq i8 %1, 0
  br i1 %guard.uninitialized, label %init.check, label %init.end, !prof !8

init.check:                                       ; preds = %sw.bb
  %2 = call i32 @__cxa_guard_acquire(ptr @_ZGVZN8proxygen17HTTPCommonHeaders17getPointerToTableB5cxx11ENS_25HTTPCommonHeaderTableTypeEE14camelcaseTableB5cxx11) #6
  %tobool = icmp ne i32 %2, 0
  br i1 %tobool, label %init, label %init.end

init:                                             ; preds = %init.check
  %3 = load i8, ptr %type.addr, align 1
  %call = invoke noundef ptr @_ZN8proxygen17HTTPCommonHeaders9initNamesB5cxx11ENS_25HTTPCommonHeaderTableTypeE(i8 noundef zeroext %3)
          to label %invoke.cont unwind label %lpad

invoke.cont:                                      ; preds = %init
  store ptr %call, ptr @_ZZN8proxygen17HTTPCommonHeaders17getPointerToTableB5cxx11ENS_25HTTPCommonHeaderTableTypeEE14camelcaseTableB5cxx11, align 8
  call void @__cxa_guard_release(ptr @_ZGVZN8proxygen17HTTPCommonHeaders17getPointerToTableB5cxx11ENS_25HTTPCommonHeaderTableTypeEE14camelcaseTableB5cxx11) #6
  br label %init.end

init.end:                                         ; preds = %invoke.cont, %init.check, %sw.bb
  %4 = load ptr, ptr @_ZZN8proxygen17HTTPCommonHeaders17getPointerToTableB5cxx11ENS_25HTTPCommonHeaderTableTypeEE14camelcaseTableB5cxx11, align 8
  store ptr %4, ptr %retval, align 8
  br label %return

lpad:                                             ; preds = %init
  %5 = landingpad { ptr, i32 }
          cleanup
  %6 = extractvalue { ptr, i32 } %5, 0
  store ptr %6, ptr %exn.slot, align 8
  %7 = extractvalue { ptr, i32 } %5, 1
  store i32 %7, ptr %ehselector.slot, align 4
  call void @__cxa_guard_abort(ptr @_ZGVZN8proxygen17HTTPCommonHeaders17getPointerToTableB5cxx11ENS_25HTTPCommonHeaderTableTypeEE14camelcaseTableB5cxx11) #6
  br label %eh.resume

sw.bb1:                                           ; preds = %entry
  %8 = load atomic i8, ptr @_ZGVZN8proxygen17HTTPCommonHeaders17getPointerToTableB5cxx11ENS_25HTTPCommonHeaderTableTypeEE14lowercaseTableB5cxx11 acquire, align 8
  %guard.uninitialized2 = icmp eq i8 %8, 0
  br i1 %guard.uninitialized2, label %init.check3, label %init.end9, !prof !8

init.check3:                                      ; preds = %sw.bb1
  %9 = call i32 @__cxa_guard_acquire(ptr @_ZGVZN8proxygen17HTTPCommonHeaders17getPointerToTableB5cxx11ENS_25HTTPCommonHeaderTableTypeEE14lowercaseTableB5cxx11) #6
  %tobool4 = icmp ne i32 %9, 0
  br i1 %tobool4, label %init5, label %init.end9

init5:                                            ; preds = %init.check3
  %10 = load i8, ptr %type.addr, align 1
  %call8 = invoke noundef ptr @_ZN8proxygen17HTTPCommonHeaders9initNamesB5cxx11ENS_25HTTPCommonHeaderTableTypeE(i8 noundef zeroext %10)
          to label %invoke.cont7 unwind label %lpad6

invoke.cont7:                                     ; preds = %init5
  store ptr %call8, ptr @_ZZN8proxygen17HTTPCommonHeaders17getPointerToTableB5cxx11ENS_25HTTPCommonHeaderTableTypeEE14lowercaseTableB5cxx11, align 8
  call void @__cxa_guard_release(ptr @_ZGVZN8proxygen17HTTPCommonHeaders17getPointerToTableB5cxx11ENS_25HTTPCommonHeaderTableTypeEE14lowercaseTableB5cxx11) #6
  br label %init.end9

init.end9:                                        ; preds = %invoke.cont7, %init.check3, %sw.bb1
  %11 = load ptr, ptr @_ZZN8proxygen17HTTPCommonHeaders17getPointerToTableB5cxx11ENS_25HTTPCommonHeaderTableTypeEE14lowercaseTableB5cxx11, align 8
  store ptr %11, ptr %retval, align 8
  br label %return

lpad6:                                            ; preds = %init5
  %12 = landingpad { ptr, i32 }
          cleanup
  %13 = extractvalue { ptr, i32 } %12, 0
  store ptr %13, ptr %exn.slot, align 8
  %14 = extractvalue { ptr, i32 } %12, 1
  store i32 %14, ptr %ehselector.slot, align 4
  call void @__cxa_guard_abort(ptr @_ZGVZN8proxygen17HTTPCommonHeaders17getPointerToTableB5cxx11ENS_25HTTPCommonHeaderTableTypeEE14lowercaseTableB5cxx11) #6
  br label %eh.resume

sw.default:                                       ; preds = %entry
  call void @_ZN6google17LogMessageVoidifyC2Ev(ptr noundef nonnull align 1 dereferenceable(1) %ref.tmp)
  call void @_ZN6google15LogMessageFatalC1EPKci(ptr noundef nonnull align 8 dereferenceable(96) %ref.tmp10, ptr noundef @.str.1, i32 noundef 359)
  %call13 = invoke noundef nonnull align 8 dereferenceable(8) ptr @_ZN6google10LogMessage6streamEv(ptr noundef nonnull align 8 dereferenceable(96) %ref.tmp10)
          to label %invoke.cont12 unwind label %lpad11

invoke.cont12:                                    ; preds = %sw.default
  %call15 = invoke noundef nonnull align 8 dereferenceable(8) ptr @_ZStlsISt11char_traitsIcEERSt13basic_ostreamIcT_ES5_PKc(ptr noundef nonnull align 8 dereferenceable(8) %call13, ptr noundef @.str.2)
          to label %invoke.cont14 unwind label %lpad11

invoke.cont14:                                    ; preds = %invoke.cont12
  invoke void @_ZN6google17LogMessageVoidifyanERSo(ptr noundef nonnull align 1 dereferenceable(1) %ref.tmp, ptr noundef nonnull align 8 dereferenceable(8) %call15)
          to label %invoke.cont16 unwind label %lpad11

invoke.cont16:                                    ; preds = %invoke.cont14
  call void @_ZN6google15LogMessageFatalD1Ev(ptr noundef nonnull align 8 dereferenceable(96) %ref.tmp10) #9
  unreachable

lpad11:                                           ; preds = %invoke.cont14, %invoke.cont12, %sw.default
  %15 = landingpad { ptr, i32 }
          cleanup
  %16 = extractvalue { ptr, i32 } %15, 0
  store ptr %16, ptr %exn.slot, align 8
  %17 = extractvalue { ptr, i32 } %15, 1
  store i32 %17, ptr %ehselector.slot, align 4
  call void @_ZN6google15LogMessageFatalD1Ev(ptr noundef nonnull align 8 dereferenceable(96) %ref.tmp10) #9
  unreachable

18:                                               ; No predecessors!
  br label %eh.resume

return:                                           ; preds = %init.end9, %init.end
  %19 = load ptr, ptr %retval, align 8
  ret ptr %19

eh.resume:                                        ; preds = %18, %lpad6, %lpad
  %exn = load ptr, ptr %exn.slot, align 8
  %sel = load i32, ptr %ehselector.slot, align 4
  %lpad.val = insertvalue { ptr, i32 } poison, ptr %exn, 0
  %lpad.val17 = insertvalue { ptr, i32 } %lpad.val, i32 %sel, 1
  resume { ptr, i32 } %lpad.val17
}