; Function Attrs: mustprogress uwtable
define noundef ptr @_ZN8proxygen17HTTPCommonHeaders17getPointerToTableB5cxx11ENS_25HTTPCommonHeaderTableTypeE(i8 noundef zeroext %type) local_unnamed_addr #1 align 2 personality ptr @__gxx_personality_v0 {
entry:
  %ref.tmp10 = alloca %"class.google::LogMessageFatal", align 8
  switch i8 %type, label %sw.default [
    i8 0, label %sw.bb
    i8 1, label %sw.bb1
  ]

sw.bb:                                            ; preds = %entry
  %0 = load atomic i8, ptr @_ZGVZN8proxygen17HTTPCommonHeaders17getPointerToTableB5cxx11ENS_25HTTPCommonHeaderTableTypeEE14camelcaseTableB5cxx11 acquire, align 8
  %guard.uninitialized = icmp eq i8 %0, 0
  br i1 %guard.uninitialized, label %init.check, label %return, !prof !7

init.check:                                       ; preds = %sw.bb
  %1 = tail call i32 @__cxa_guard_acquire(ptr nonnull @_ZGVZN8proxygen17HTTPCommonHeaders17getPointerToTableB5cxx11ENS_25HTTPCommonHeaderTableTypeEE14camelcaseTableB5cxx11) #8
  %tobool.not = icmp eq i32 %1, 0
  br i1 %tobool.not, label %return, label %init

init:                                             ; preds = %init.check
  %call = invoke noundef ptr @_ZN8proxygen17HTTPCommonHeaders9initNamesB5cxx11ENS_25HTTPCommonHeaderTableTypeE(i8 noundef zeroext 0)
          to label %invoke.cont unwind label %lpad

invoke.cont:                                      ; preds = %init
  store ptr %call, ptr @_ZZN8proxygen17HTTPCommonHeaders17getPointerToTableB5cxx11ENS_25HTTPCommonHeaderTableTypeEE14camelcaseTableB5cxx11, align 8
  br label %return.sink.split

lpad:                                             ; preds = %init
  %2 = landingpad { ptr, i32 }
          cleanup
  br label %eh.resume

sw.bb1:                                           ; preds = %entry
  %3 = load atomic i8, ptr @_ZGVZN8proxygen17HTTPCommonHeaders17getPointerToTableB5cxx11ENS_25HTTPCommonHeaderTableTypeEE14lowercaseTableB5cxx11 acquire, align 8
  %guard.uninitialized2 = icmp eq i8 %3, 0
  br i1 %guard.uninitialized2, label %init.check3, label %return, !prof !7

init.check3:                                      ; preds = %sw.bb1
  %4 = tail call i32 @__cxa_guard_acquire(ptr nonnull @_ZGVZN8proxygen17HTTPCommonHeaders17getPointerToTableB5cxx11ENS_25HTTPCommonHeaderTableTypeEE14lowercaseTableB5cxx11) #8
  %tobool4.not = icmp eq i32 %4, 0
  br i1 %tobool4.not, label %return, label %init5

init5:                                            ; preds = %init.check3
  %call8 = invoke noundef ptr @_ZN8proxygen17HTTPCommonHeaders9initNamesB5cxx11ENS_25HTTPCommonHeaderTableTypeE(i8 noundef zeroext 1)
          to label %invoke.cont7 unwind label %lpad6

invoke.cont7:                                     ; preds = %init5
  store ptr %call8, ptr @_ZZN8proxygen17HTTPCommonHeaders17getPointerToTableB5cxx11ENS_25HTTPCommonHeaderTableTypeEE14lowercaseTableB5cxx11, align 8
  br label %return.sink.split

lpad6:                                            ; preds = %init5
  %5 = landingpad { ptr, i32 }
          cleanup
  br label %eh.resume

sw.default:                                       ; preds = %entry
  call void @_ZN6google15LogMessageFatalC1EPKci(ptr noundef nonnull align 8 dereferenceable(96) %ref.tmp10, ptr noundef nonnull @.str.1, i32 noundef 359)
  %call13 = invoke noundef nonnull align 8 dereferenceable(8) ptr @_ZN6google10LogMessage6streamEv(ptr noundef nonnull align 8 dereferenceable(96) %ref.tmp10)
          to label %invoke.cont12 unwind label %lpad11

invoke.cont12:                                    ; preds = %sw.default
  %call15 = invoke noundef nonnull align 8 dereferenceable(8) ptr @_ZStlsISt11char_traitsIcEERSt13basic_ostreamIcT_ES5_PKc(ptr noundef nonnull align 8 dereferenceable(8) %call13, ptr noundef nonnull @.str.2)
          to label %invoke.cont14 unwind label %lpad11

invoke.cont14:                                    ; preds = %invoke.cont12
  call void @_ZN6google15LogMessageFatalD1Ev(ptr noundef nonnull align 8 dereferenceable(96) %ref.tmp10) #9
  unreachable

lpad11:                                           ; preds = %invoke.cont12, %sw.default
  %6 = landingpad { ptr, i32 }
          cleanup
  call void @_ZN6google15LogMessageFatalD1Ev(ptr noundef nonnull align 8 dereferenceable(96) %ref.tmp10) #9
  unreachable

return.sink.split:                                ; preds = %invoke.cont, %invoke.cont7
  %_ZGVZN8proxygen17HTTPCommonHeaders17getPointerToTableB5cxx11ENS_25HTTPCommonHeaderTableTypeEE14lowercaseTableB5cxx11.sink = phi ptr [ @_ZGVZN8proxygen17HTTPCommonHeaders17getPointerToTableB5cxx11ENS_25HTTPCommonHeaderTableTypeEE14lowercaseTableB5cxx11, %invoke.cont7 ], [ @_ZGVZN8proxygen17HTTPCommonHeaders17getPointerToTableB5cxx11ENS_25HTTPCommonHeaderTableTypeEE14camelcaseTableB5cxx11, %invoke.cont ]
  %retval.0.in.ph = phi ptr [ @_ZZN8proxygen17HTTPCommonHeaders17getPointerToTableB5cxx11ENS_25HTTPCommonHeaderTableTypeEE14lowercaseTableB5cxx11, %invoke.cont7 ], [ @_ZZN8proxygen17HTTPCommonHeaders17getPointerToTableB5cxx11ENS_25HTTPCommonHeaderTableTypeEE14camelcaseTableB5cxx11, %invoke.cont ]
  tail call void @__cxa_guard_release(ptr nonnull %_ZGVZN8proxygen17HTTPCommonHeaders17getPointerToTableB5cxx11ENS_25HTTPCommonHeaderTableTypeEE14lowercaseTableB5cxx11.sink) #8
  br label %return

return:                                           ; preds = %return.sink.split, %sw.bb1, %init.check3, %sw.bb, %init.check
  %retval.0.in = phi ptr [ @_ZZN8proxygen17HTTPCommonHeaders17getPointerToTableB5cxx11ENS_25HTTPCommonHeaderTableTypeEE14camelcaseTableB5cxx11, %init.check ], [ @_ZZN8proxygen17HTTPCommonHeaders17getPointerToTableB5cxx11ENS_25HTTPCommonHeaderTableTypeEE14camelcaseTableB5cxx11, %sw.bb ], [ @_ZZN8proxygen17HTTPCommonHeaders17getPointerToTableB5cxx11ENS_25HTTPCommonHeaderTableTypeEE14lowercaseTableB5cxx11, %init.check3 ], [ @_ZZN8proxygen17HTTPCommonHeaders17getPointerToTableB5cxx11ENS_25HTTPCommonHeaderTableTypeEE14lowercaseTableB5cxx11, %sw.bb1 ], [ %retval.0.in.ph, %return.sink.split ]
  %retval.0 = load ptr, ptr %retval.0.in, align 8
  ret ptr %retval.0

eh.resume:                                        ; preds = %lpad6, %lpad
  %_ZGVZN8proxygen17HTTPCommonHeaders17getPointerToTableB5cxx11ENS_25HTTPCommonHeaderTableTypeEE14lowercaseTableB5cxx11.sink4 = phi ptr [ @_ZGVZN8proxygen17HTTPCommonHeaders17getPointerToTableB5cxx11ENS_25HTTPCommonHeaderTableTypeEE14lowercaseTableB5cxx11, %lpad6 ], [ @_ZGVZN8proxygen17HTTPCommonHeaders17getPointerToTableB5cxx11ENS_25HTTPCommonHeaderTableTypeEE14camelcaseTableB5cxx11, %lpad ]
  %.pn = phi { ptr, i32 } [ %5, %lpad6 ], [ %2, %lpad ]
  tail call void @__cxa_guard_abort(ptr nonnull %_ZGVZN8proxygen17HTTPCommonHeaders17getPointerToTableB5cxx11ENS_25HTTPCommonHeaderTableTypeEE14lowercaseTableB5cxx11.sink4) #8
  resume { ptr, i32 } %.pn
}